target datalayout = "e-m:e-p270:32:32-p271:32:32-p272:64:64-i64:64-i128:128-f80:128-n8:16:32:64-S128"
target triple = "x86_64-unknown-linux-gnu"

%struct.MACAddr = type { [6 x i8] }
%struct.of_dpa_flow_tbl_ops = type { ptr, ptr, ptr, ptr, ptr, ptr }
%struct.of_dpa = type { ptr, ptr, ptr, i32, i32 }
%struct.of_dpa_flow = type { i32, i32, i32, i32, i64, %struct.of_dpa_flow_key, %struct.of_dpa_flow_key, %struct.of_dpa_flow_action, %struct.anon.13 }
%struct.of_dpa_flow_key = type { i32, i32, i32, %struct.anon, %struct.anon.0, %union.anon, i32 }
%struct.anon = type { i16, %struct.MACAddr, %struct.MACAddr, i16 }
%struct.anon.0 = type { i8, i8, i8, i8 }
%union.anon = type { %struct.anon.6 }
%struct.anon.6 = type { %struct.anon.7, i32, %struct.anon.9, %struct.anon.10 }
%struct.anon.7 = type { %struct.ipv6_addr, %struct.ipv6_addr }
%struct.ipv6_addr = type { %union.anon.8 }
%union.anon.8 = type { [4 x i32] }
%struct.anon.9 = type { i16, i16, i16 }
%struct.anon.10 = type { %struct.ipv6_addr, %struct.MACAddr, %struct.MACAddr }
%struct.of_dpa_flow_action = type { i32, %struct.anon.11, %struct.anon.12 }
%struct.anon.11 = type { i32, i32, i16 }
%struct.anon.12 = type { i16, i32, i8, i16 }
%struct.anon.13 = type { i64, i64, i64, i64, i64 }
%struct.of_dpa_flow_context = type { i32, i32, ptr, i32, %struct.eth_header, %struct.vlan_header, %struct.vlan_header, ptr, %struct.of_dpa_flow_pkt_fields, %struct.of_dpa_flow_action }
%struct.eth_header = type { [6 x i8], [6 x i8], i16 }
%struct.vlan_header = type { i16, i16 }
%struct.of_dpa_flow_pkt_fields = type { i32, ptr, ptr, ptr, ptr, ptr, ptr, ptr }
%struct.of_dpa_flow_match = type { %struct.of_dpa_flow_key, ptr }

@.str.10 = private unnamed_addr constant [13 x i8] c"\0Anew search\0A\00", align 1

; Function Attrs: nounwind sspstrong uwtable
define internal i32 @DPRINTF(ptr noundef %fmt, ...) #0 {
entry:
  %fmt.addr = alloca ptr, align 8
  store ptr %fmt, ptr %fmt.addr, align 8
  ret i32 0
}

; Function Attrs: nounwind sspstrong uwtable
define internal ptr @of_dpa_flow_match(ptr noundef %of_dpa, ptr noundef %match) #0 {
entry:
  %of_dpa.addr = alloca ptr, align 8
  %match.addr = alloca ptr, align 8
  store ptr %of_dpa, ptr %of_dpa.addr, align 8
  store ptr %match, ptr %match.addr, align 8
  %call = call i32 (ptr, ...) @DPRINTF(ptr noundef @.str.10)
  %0 = load ptr, ptr %of_dpa.addr, align 8
  %flow_tbl = getelementptr inbounds %struct.of_dpa, ptr %0, i32 0, i32 1
  %1 = load ptr, ptr %flow_tbl, align 8
  %2 = load ptr, ptr %match.addr, align 8
  call void @g_hash_table_foreach(ptr noundef %1, ptr noundef @_of_dpa_flow_match, ptr noundef %2)
  %3 = load ptr, ptr %match.addr, align 8
  %best = getelementptr inbounds %struct.of_dpa_flow_match, ptr %3, i32 0, i32 1
  %4 = load ptr, ptr %best, align 8
  ret ptr %4
}

; Function Attrs: nounwind sspstrong uwtable
define internal void @of_dpa_flow_ig_tbl(ptr noundef %fc, i32 noundef %tbl_id) #0 {
entry:
  %fc.addr = alloca ptr, align 8
  %tbl_id.addr = alloca i32, align 4
  %ops = alloca ptr, align 8
  %match = alloca %struct.of_dpa_flow_match, align 8
  %flow = alloca ptr, align 8
  store ptr %fc, ptr %fc.addr, align 8
  store i32 %tbl_id, ptr %tbl_id.addr, align 4
  %0 = load i32, ptr %tbl_id.addr, align 4
  %idxprom = zext i32 %0 to i64
  %arrayidx = getelementptr [61 x %struct.of_dpa_flow_tbl_ops], ptr @of_dpa_tbl_ops, i64 0, i64 %idxprom
  store ptr %arrayidx, ptr %ops, align 8
  call void @llvm.memset.p0.i64(ptr align 8 %match, i8 0, i64 120, i1 false)
  %1 = load ptr, ptr %ops, align 8
  %build_match = getelementptr inbounds %struct.of_dpa_flow_tbl_ops, ptr %1, i32 0, i32 0
  %2 = load ptr, ptr %build_match, align 8
  %tobool = icmp ne ptr %2, null
  br i1 %tobool, label %if.then, label %if.else

if.then:                                          ; preds = %entry
  %3 = load ptr, ptr %ops, align 8
  %build_match1 = getelementptr inbounds %struct.of_dpa_flow_tbl_ops, ptr %3, i32 0, i32 0
  %4 = load ptr, ptr %build_match1, align 8
  %5 = load ptr, ptr %fc.addr, align 8
  call void %4(ptr noundef %5, ptr noundef %match)
  br label %if.end

if.else:                                          ; preds = %entry
  br label %if.end30

if.end:                                           ; preds = %if.then
  %6 = load ptr, ptr %fc.addr, align 8
  %of_dpa = getelementptr inbounds %struct.of_dpa_flow_context, ptr %6, i32 0, i32 7
  %7 = load ptr, ptr %of_dpa, align 8
  %call = call ptr @of_dpa_flow_match(ptr noundef %7, ptr noundef %match)
  store ptr %call, ptr %flow, align 8
  %8 = load ptr, ptr %flow, align 8
  %tobool2 = icmp ne ptr %8, null
  br i1 %tobool2, label %if.end8, label %if.then3

if.then3:                                         ; preds = %if.end
  %9 = load ptr, ptr %ops, align 8
  %miss = getelementptr inbounds %struct.of_dpa_flow_tbl_ops, ptr %9, i32 0, i32 2
  %10 = load ptr, ptr %miss, align 8
  %tobool4 = icmp ne ptr %10, null
  br i1 %tobool4, label %if.then5, label %if.end7

if.then5:                                         ; preds = %if.then3
  %11 = load ptr, ptr %ops, align 8
  %miss6 = getelementptr inbounds %struct.of_dpa_flow_tbl_ops, ptr %11, i32 0, i32 2
  %12 = load ptr, ptr %miss6, align 8
  %13 = load ptr, ptr %fc.addr, align 8
  call void %12(ptr noundef %13)
  br label %if.end7

if.end7:                                          ; preds = %if.then5, %if.then3
  br label %if.end30

if.end8:                                          ; preds = %if.end
  %14 = load ptr, ptr %flow, align 8
  %stats = getelementptr inbounds %struct.of_dpa_flow, ptr %14, i32 0, i32 8
  %hits = getelementptr inbounds %struct.anon.13, ptr %stats, i32 0, i32 0
  %15 = load i64, ptr %hits, align 8
  %inc = add i64 %15, 1
  store i64 %inc, ptr %hits, align 8
  %16 = load ptr, ptr %ops, align 8
  %action_apply = getelementptr inbounds %struct.of_dpa_flow_tbl_ops, ptr %16, i32 0, i32 4
  %17 = load ptr, ptr %action_apply, align 8
  %tobool9 = icmp ne ptr %17, null
  br i1 %tobool9, label %if.then10, label %if.end12

if.then10:                                        ; preds = %if.end8
  %18 = load ptr, ptr %ops, align 8
  %action_apply11 = getelementptr inbounds %struct.of_dpa_flow_tbl_ops, ptr %18, i32 0, i32 4
  %19 = load ptr, ptr %action_apply11, align 8
  %20 = load ptr, ptr %fc.addr, align 8
  %21 = load ptr, ptr %flow, align 8
  call void %19(ptr noundef %20, ptr noundef %21)
  br label %if.end12

if.end12:                                         ; preds = %if.then10, %if.end8
  %22 = load ptr, ptr %ops, align 8
  %action_write = getelementptr inbounds %struct.of_dpa_flow_tbl_ops, ptr %22, i32 0, i32 5
  %23 = load ptr, ptr %action_write, align 8
  %tobool13 = icmp ne ptr %23, null
  br i1 %tobool13, label %if.then14, label %if.end16

if.then14:                                        ; preds = %if.end12
  %24 = load ptr, ptr %ops, align 8
  %action_write15 = getelementptr inbounds %struct.of_dpa_flow_tbl_ops, ptr %24, i32 0, i32 5
  %25 = load ptr, ptr %action_write15, align 8
  %26 = load ptr, ptr %fc.addr, align 8
  %27 = load ptr, ptr %flow, align 8
  call void %25(ptr noundef %26, ptr noundef %27)
  br label %if.end16

if.end16:                                         ; preds = %if.then14, %if.end12
  %28 = load ptr, ptr %ops, align 8
  %hit = getelementptr inbounds %struct.of_dpa_flow_tbl_ops, ptr %28, i32 0, i32 1
  %29 = load ptr, ptr %hit, align 8
  %tobool17 = icmp ne ptr %29, null
  br i1 %tobool17, label %if.then18, label %if.end20

if.then18:                                        ; preds = %if.end16
  %30 = load ptr, ptr %ops, align 8
  %hit19 = getelementptr inbounds %struct.of_dpa_flow_tbl_ops, ptr %30, i32 0, i32 1
  %31 = load ptr, ptr %hit19, align 8
  %32 = load ptr, ptr %fc.addr, align 8
  %33 = load ptr, ptr %flow, align 8
  call void %31(ptr noundef %32, ptr noundef %33)
  br label %if.end20

if.end20:                                         ; preds = %if.then18, %if.end16
  %34 = load ptr, ptr %flow, align 8
  %action = getelementptr inbounds %struct.of_dpa_flow, ptr %34, i32 0, i32 7
  %goto_tbl = getelementptr inbounds %struct.of_dpa_flow_action, ptr %action, i32 0, i32 0
  %35 = load i32, ptr %goto_tbl, align 8
  %tobool21 = icmp ne i32 %35, 0
  br i1 %tobool21, label %if.then22, label %if.else25

if.then22:                                        ; preds = %if.end20
  %36 = load ptr, ptr %fc.addr, align 8
  %37 = load ptr, ptr %flow, align 8
  %action23 = getelementptr inbounds %struct.of_dpa_flow, ptr %37, i32 0, i32 7
  %goto_tbl24 = getelementptr inbounds %struct.of_dpa_flow_action, ptr %action23, i32 0, i32 0
  %38 = load i32, ptr %goto_tbl24, align 8
  call void @of_dpa_flow_ig_tbl(ptr noundef %36, i32 noundef %38)
  br label %if.end30

if.else25:                                        ; preds = %if.end20
  %39 = load ptr, ptr %ops, align 8
  %hit_no_goto = getelementptr inbounds %struct.of_dpa_flow_tbl_ops, ptr %39, i32 0, i32 3
  %40 = load ptr, ptr %hit_no_goto, align 8
  %tobool26 = icmp ne ptr %40, null
  br i1 %tobool26, label %if.then27, label %if.end29

if.then27:                                        ; preds = %if.else25
  %41 = load ptr, ptr %ops, align 8
  %hit_no_goto28 = getelementptr inbounds %struct.of_dpa_flow_tbl_ops, ptr %41, i32 0, i32 3
  %42 = load ptr, ptr %hit_no_goto28, align 8
  %43 = load ptr, ptr %fc.addr, align 8
  call void %42(ptr noundef %43)
  br label %if.end29

if.end29:                                         ; preds = %if.then27, %if.else25
  br label %if.end30

if.end30:                                         ; preds = %if.end29, %if.then22, %if.end7, %if.else
  ret void
}