; Function Attrs: nounwind sspstrong uwtable
define internal fastcc void @of_dpa_flow_ig_tbl(ptr noundef %fc, i32 noundef %tbl_id) unnamed_addr #0 {
entry:
  %match = alloca %struct.of_dpa_flow_match, align 8
  %idxprom = zext i32 %tbl_id to i64
  %arrayidx = getelementptr [61 x %struct.of_dpa_flow_tbl_ops], ptr @of_dpa_tbl_ops, i64 0, i64 %idxprom
  call void @llvm.memset.p0.i64(ptr noundef nonnull align 8 dereferenceable(120) %match, i8 0, i64 120, i1 false)
  %0 = load ptr, ptr %arrayidx, align 16
  %tobool.not = icmp eq ptr %0, null
  br i1 %tobool.not, label %if.end30, label %if.then

if.then:                                          ; preds = %entry
  call void %0(ptr noundef %fc, ptr noundef nonnull %match) #18
  %of_dpa = getelementptr inbounds nuw i8, ptr %fc, i64 48
  %1 = load ptr, ptr %of_dpa, align 8
  %2 = getelementptr i8, ptr %1, i64 8
  %.val = load ptr, ptr %2, align 8
  call void @g_hash_table_foreach(ptr noundef %.val, ptr noundef nonnull @_of_dpa_flow_match, ptr noundef nonnull %match) #18
  %best.i = getelementptr inbounds nuw i8, ptr %match, i64 112
  %3 = load ptr, ptr %best.i, align 8
  %tobool2.not = icmp eq ptr %3, null
  br i1 %tobool2.not, label %if.then3, label %if.end8

if.then3:                                         ; preds = %if.then
  %miss = getelementptr inbounds nuw i8, ptr %arrayidx, i64 16
  %4 = load ptr, ptr %miss, align 16
  %tobool4.not = icmp eq ptr %4, null
  br i1 %tobool4.not, label %if.end30, label %if.then5

if.then5:                                         ; preds = %if.then3
  call void %4(ptr noundef nonnull %fc) #18
  br label %if.end30

if.end8:                                          ; preds = %if.then
  %stats = getelementptr inbounds nuw i8, ptr %3, i64 272
  %5 = load i64, ptr %stats, align 8
  %inc = add i64 %5, 1
  store i64 %inc, ptr %stats, align 8
  %action_apply = getelementptr inbounds nuw i8, ptr %arrayidx, i64 32
  %6 = load ptr, ptr %action_apply, align 16
  %tobool9.not = icmp eq ptr %6, null
  br i1 %tobool9.not, label %if.end12, label %if.then10

if.then10:                                        ; preds = %if.end8
  call void %6(ptr noundef nonnull %fc, ptr noundef nonnull %3) #18
  br label %if.end12

if.end12:                                         ; preds = %if.then10, %if.end8
  %action_write = getelementptr inbounds nuw i8, ptr %arrayidx, i64 40
  %7 = load ptr, ptr %action_write, align 8
  %tobool13.not = icmp eq ptr %7, null
  br i1 %tobool13.not, label %if.end16, label %if.then14

if.then14:                                        ; preds = %if.end12
  call void %7(ptr noundef nonnull %fc, ptr noundef nonnull %3) #18
  br label %if.end16

if.end16:                                         ; preds = %if.then14, %if.end12
  %hit = getelementptr inbounds nuw i8, ptr %arrayidx, i64 8
  %8 = load ptr, ptr %hit, align 8
  %tobool17.not = icmp eq ptr %8, null
  br i1 %tobool17.not, label %if.end20, label %if.then18

if.then18:                                        ; preds = %if.end16
  call void %8(ptr noundef nonnull %fc, ptr noundef nonnull %3) #18
  br label %if.end20

if.end20:                                         ; preds = %if.then18, %if.end16
  %action = getelementptr inbounds nuw i8, ptr %3, i64 240
  %9 = load i32, ptr %action, align 8
  %tobool21.not = icmp eq i32 %9, 0
  br i1 %tobool21.not, label %if.else25, label %if.then22

if.then22:                                        ; preds = %if.end20
  call fastcc void @of_dpa_flow_ig_tbl(ptr noundef nonnull %fc, i32 noundef %9)
  br label %if.end30

if.else25:                                        ; preds = %if.end20
  %hit_no_goto = getelementptr inbounds nuw i8, ptr %arrayidx, i64 24
  %10 = load ptr, ptr %hit_no_goto, align 8
  %tobool26.not = icmp eq ptr %10, null
  br i1 %tobool26.not, label %if.end30, label %if.then27

if.then27:                                        ; preds = %if.else25
  call void %10(ptr noundef nonnull %fc) #18
  br label %if.end30

if.end30:                                         ; preds = %if.else25, %if.then27, %if.then3, %if.then5, %entry, %if.then22
  ret void
}